; Function Attrs: mustprogress uwtable
define hidden void @_ZN3opt7context11init_solverEv(ptr noundef nonnull align 8 dereferenceable(792) %this) local_unnamed_addr #3 align 2 {
entry:
  tail call void @_ZN3opt7context18setup_arith_solverEv(ptr noundef nonnull align 8 dereferenceable(792) %this)
  %m_sat_solver = getelementptr inbounds i8, ptr %this, i64 240
  %0 = load ptr, ptr %m_sat_solver, align 8
  %tobool.not.i.i = icmp eq ptr %0, null
  br i1 %tobool.not.i.i, label %if.end.i, label %if.then.i.i

if.then.i.i:                                      ; preds = %entry
  %m_ref_count.i.i.i = getelementptr inbounds i8, ptr %0, i64 48
  %1 = load i32, ptr %m_ref_count.i.i.i, align 8
  %dec.i.i.i = add i32 %1, -1
  store i32 %dec.i.i.i, ptr %m_ref_count.i.i.i, align 8
  %cmp.i.i.i = icmp eq i32 %dec.i.i.i, 0
  br i1 %cmp.i.i.i, label %if.then.i.i.i, label %if.end.i

if.then.i.i.i:                                    ; preds = %if.then.i.i
  %vtable.i.i.i.i = load ptr, ptr %0, align 8
  %2 = load ptr, ptr %vtable.i.i.i.i, align 8
  tail call void %2(ptr noundef nonnull align 8 dereferenceable(72) %0) #24
  tail call void @_ZN6memory10deallocateEPv(ptr noundef nonnull %0)
  br label %if.end.i

if.end.i:                                         ; preds = %entry, %if.then.i.i, %if.then.i.i.i
  store ptr null, ptr %m_sat_solver, align 8
  %call2 = tail call noalias noundef ptr @_ZN6memory8allocateEm(i64 noundef 1040)
  %m = getelementptr inbounds i8, ptr %this, i64 8
  %3 = load ptr, ptr %m, align 8
  %m_params = getelementptr inbounds i8, ptr %this, i64 288
  %m_fm = getelementptr inbounds i8, ptr %this, i64 616
  %4 = load ptr, ptr %m_fm, align 8
  tail call void @_ZN3opt10opt_solverC1ER11ast_managerRK10params_refR23generic_model_converter(ptr noundef nonnull align 8 dereferenceable(1034) %call2, ptr noundef nonnull align 8 dereferenceable(976) %3, ptr noundef nonnull align 8 dereferenceable(8) %m_params, ptr noundef nonnull align 8 dereferenceable(80) %4)
  %m_opt_solver = getelementptr inbounds i8, ptr %this, i64 224
  %m_ref_count.i.i = getelementptr inbounds i8, ptr %call2, i64 48
  %5 = load i32, ptr %m_ref_count.i.i, align 8
  %inc.i.i = add i32 %5, 1
  store i32 %inc.i.i, ptr %m_ref_count.i.i, align 8
  %6 = load ptr, ptr %m_opt_solver, align 8
  %tobool.not.i.i1 = icmp eq ptr %6, null
  br i1 %tobool.not.i.i1, label %_ZN3refIN3opt10opt_solverEEaSEPS1_.exit, label %if.then.i.i2

if.then.i.i2:                                     ; preds = %if.end.i
  %m_ref_count.i.i.i3 = getelementptr inbounds i8, ptr %6, i64 48
  %7 = load i32, ptr %m_ref_count.i.i.i3, align 8
  %dec.i.i.i4 = add i32 %7, -1
  store i32 %dec.i.i.i4, ptr %m_ref_count.i.i.i3, align 8
  %cmp.i.i.i5 = icmp eq i32 %dec.i.i.i4, 0
  br i1 %cmp.i.i.i5, label %if.then.i.i.i6, label %_ZN3refIN3opt10opt_solverEEaSEPS1_.exit

if.then.i.i.i6:                                   ; preds = %if.then.i.i2
  %vtable.i.i.i.i7 = load ptr, ptr %6, align 8
  %8 = load ptr, ptr %vtable.i.i.i.i7, align 8
  tail call void %8(ptr noundef nonnull align 8 dereferenceable(72) %6) #24
  tail call void @_ZN6memory10deallocateEPv(ptr noundef nonnull %6)
  br label %_ZN3refIN3opt10opt_solverEEaSEPS1_.exit

_ZN3refIN3opt10opt_solverEEaSEPS1_.exit:          ; preds = %if.end.i, %if.then.i.i2, %if.then.i.i.i6
  store ptr %call2, ptr %m_opt_solver, align 8
  %m_logic = getelementptr inbounds i8, ptr %this, i64 744
  tail call void @_ZN3opt10opt_solver9set_logicERK6symbol(ptr noundef nonnull align 8 dereferenceable(1034) %call2, ptr noundef nonnull align 8 dereferenceable(8) %m_logic)
  %9 = load ptr, ptr %m_opt_solver, align 8
  %m_solver = getelementptr inbounds i8, ptr %this, i64 232
  %tobool.not.i8 = icmp eq ptr %9, null
  br i1 %tobool.not.i8, label %if.end.i12, label %if.then.i9

if.then.i9:                                       ; preds = %_ZN3refIN3opt10opt_solverEEaSEPS1_.exit
  %m_ref_count.i.i10 = getelementptr inbounds i8, ptr %9, i64 48
  %10 = load i32, ptr %m_ref_count.i.i10, align 8
  %inc.i.i11 = add i32 %10, 1
  store i32 %inc.i.i11, ptr %m_ref_count.i.i10, align 8
  br label %if.end.i12

if.end.i12:                                       ; preds = %if.then.i9, %_ZN3refIN3opt10opt_solverEEaSEPS1_.exit
  %11 = load ptr, ptr %m_solver, align 8
  %tobool.not.i.i13 = icmp eq ptr %11, null
  br i1 %tobool.not.i.i13, label %_ZN3refI6solverEaSEPS0_.exit20, label %if.then.i.i14

if.then.i.i14:                                    ; preds = %if.end.i12
  %m_ref_count.i.i.i15 = getelementptr inbounds i8, ptr %11, i64 48
  %12 = load i32, ptr %m_ref_count.i.i.i15, align 8
  %dec.i.i.i16 = add i32 %12, -1
  store i32 %dec.i.i.i16, ptr %m_ref_count.i.i.i15, align 8
  %cmp.i.i.i17 = icmp eq i32 %dec.i.i.i16, 0
  br i1 %cmp.i.i.i17, label %if.then.i.i.i18, label %_ZN3refI6solverEaSEPS0_.exit20

if.then.i.i.i18:                                  ; preds = %if.then.i.i14
  %vtable.i.i.i.i19 = load ptr, ptr %11, align 8
  %13 = load ptr, ptr %vtable.i.i.i.i19, align 8
  tail call void %13(ptr noundef nonnull align 8 dereferenceable(72) %11) #24
  tail call void @_ZN6memory10deallocateEPv(ptr noundef nonnull %11)
  br label %_ZN3refI6solverEaSEPS0_.exit20

_ZN3refI6solverEaSEPS0_.exit20:                   ; preds = %if.end.i12, %if.then.i.i14, %if.then.i.i.i18
  store ptr %9, ptr %m_solver, align 8
  %14 = load ptr, ptr %m_opt_solver, align 8
  tail call void @_ZN3opt10opt_solver9ensure_pbEv(ptr noundef nonnull align 8 dereferenceable(1034) %14)
  ret void
}